CCS PCM C Compiler, Version 5.015, 5967               07-mai-18 11:24

               Filename:   C:\Users\vbob\OneDrive\Área de Trabalho\temp\main.lst

               ROM used:   115 words (1%)
                           Largest free fragment is 2048
               RAM used:   15 (4%) at main() level
                           15 (4%) worst case
               Stack used: 1 locations (0 in main + 1 for interrupts)
               Stack size: 8

*
0000:  MOVLW  00
0001:  MOVWF  0A
0002:  GOTO   055
0003:  NOP
0004:  MOVWF  7F
0005:  SWAPF  03,W
0006:  CLRF   03
0007:  MOVWF  21
0008:  MOVF   0A,W
0009:  MOVWF  20
000A:  CLRF   0A
000B:  MOVF   04,W
000C:  MOVWF  22
000D:  MOVF   77,W
000E:  MOVWF  23
000F:  MOVF   78,W
0010:  MOVWF  24
0011:  MOVF   79,W
0012:  MOVWF  25
0013:  MOVF   7A,W
0014:  MOVWF  26
0015:  BCF    03.7
0016:  BCF    03.5
0017:  BTFSS  0B.5
0018:  GOTO   01B
0019:  BTFSC  0B.2
001A:  GOTO   02C
001B:  MOVF   22,W
001C:  MOVWF  04
001D:  MOVF   23,W
001E:  MOVWF  77
001F:  MOVF   24,W
0020:  MOVWF  78
0021:  MOVF   25,W
0022:  MOVWF  79
0023:  MOVF   26,W
0024:  MOVWF  7A
0025:  MOVF   20,W
0026:  MOVWF  0A
0027:  SWAPF  21,W
0028:  MOVWF  03
0029:  SWAPF  7F,F
002A:  SWAPF  7F,W
002B:  RETFIE
002C:  BCF    0A.3
002D:  BCF    0A.4
002E:  GOTO   02F
.................... #include <16F877A.h> 
.................... //////////// Standard Header file for the PIC16F877A device //////////////// 
.................... /////////////////////////////////////////////////////////////////////////// 
.................... ////        (C) Copyright 1996, 2013 Custom Computer Services          //// 
.................... //// This source code may only be used by licensed users of the CCS C  //// 
.................... //// compiler.  This source code may only be distributed to other      //// 
.................... //// licensed users of the CCS C compiler.  No other use, reproduction //// 
.................... //// or distribution is permitted without written permission.          //// 
.................... //// Derivative programs created using this software in object code    //// 
.................... //// form are not restricted in any way.                               //// 
.................... /////////////////////////////////////////////////////////////////////////// 
.................... #device PIC16F877A 
....................  
.................... #list 
....................  
.................... #device ADC=16 
....................  
.................... #FUSES NOWDT                    //No Watch Dog Timer 
.................... #FUSES NOBROWNOUT               //No brownout reset 
.................... #FUSES NOLVP                    //No low voltage prgming, B3(PIC16) or B5(PIC18) used for I/O 
....................  
.................... #use delay(crystal=20000000) 
.................... #use FIXED_IO( B_outputs=PIN_B2 ) 
.................... #use FIXED_IO( C_outputs=PIN_C4, PIN_C5 ) 
.................... #use FIXED_IO( D_outputs=PIN_D0, PIN_D1 ) 
....................  
.................... #include <stdint.h> 
.................... /////////////////////////////////////////////////////////////////////////// 
.................... ////                                                                   //// 
.................... ////                           stdint.h                                //// 
.................... ////                                                                   //// 
.................... //// Standard integer definitions.                                     //// 
.................... ////                                                                   //// 
.................... /////////////////////////////////////////////////////////////////////////// 
.................... ////        (C) Copyright 1996,2008 Custom Computer Services           //// 
.................... //// This source code may only be used by licensed users of the CCS C  //// 
.................... //// compiler.  This source code may only be distributed to other      //// 
.................... //// licensed users of the CCS C compiler.  No other use, reproduction //// 
.................... //// or distribution is permitted without written permission.          //// 
.................... //// Derivative programs created using this software in object code    //// 
.................... //// form are not restricted in any way.                               //// 
.................... /////////////////////////////////////////////////////////////////////////// 
....................  
.................... #ifndef _STDINT 
....................  
.................... #define _STDINT 
....................  
.................... //////////// exact width 
....................  
.................... typedef signed int8 int8_t; 
.................... typedef unsigned int8 uint8_t; 
.................... typedef signed int16 int16_t; 
.................... typedef unsigned int16 uint16_t; 
.................... typedef signed int32 int32_t; 
.................... typedef unsigned int32 uint32_t; 
....................  
.................... #if defined(__PCD__) 
.................... //typedef signed int24 int24_t; 
.................... //typedef unsigned int24 uint24_t; 
.................... typedef signed int64 int64_t; 
.................... typedef unsigned int64 uint64_t; 
.................... #endif 
....................  
.................... #define INT8_MAX  (128) 
.................... #define INT8_MIN  (-127) 
.................... #define UINT8_MAX (255) 
....................  
.................... #define INT16_MAX  (32767) 
.................... #define INT16_MIN  (-32768) 
.................... #define UINT16_MAX (65535) 
....................  
.................... #define INT32_MAX  (2147483647) 
.................... #define INT32_MIN  (-2147483648) 
.................... #define UINT32_MAX (4294967295) 
....................  
.................... #if defined(__PCD__) 
.................... //#define INT24_MAX  (8388607) 
.................... //#define INT24_MIN  (-8388608) 
.................... //#define UINT24_MAX (16777215) 
....................  
.................... #define INT64_MAX  (9223372036854775807) 
.................... #define INT64_MIN  (-9223372036854775808) 
.................... #define UINT64_MAX (18446744073709551615) 
.................... #endif 
....................  
.................... ///////// minimum width 
....................  
.................... typedef signed int8 int_least8_t; 
.................... typedef unsigned int8 uint_least8_t; 
.................... typedef signed int16 int_least16_t; 
.................... typedef unsigned int16 uint_least16_t; 
.................... typedef signed int32 int_least32_t; 
.................... typedef unsigned int32 uint_least32_t; 
....................  
.................... #if defined(__PCD__) 
.................... //typedef signed int24 int_least24_t; 
.................... //typedef unsigned int24 uint_least24_t; 
.................... typedef signed int64 int_least64_t; 
.................... typedef unsigned int64 uint_least64_t; 
.................... #endif 
....................  
.................... #define INT_LEAST8_MAX  (128) 
.................... #define INT_LEAST8_MIN  (-127) 
.................... #define UINT_LEAST8_MAX (255) 
....................  
.................... #define INT_LEAST16_MAX  (32767) 
.................... #define INT_LEAST16_MIN  (-32768) 
.................... #define UINT_LEAST16_MAX (65535) 
....................  
.................... #define INT_LEAST32_MAX  (2147483647) 
.................... #define INT_LEAST32_MIN  (-2147483648) 
.................... #define UINT_LEAST32_MAX (4294967295) 
....................  
.................... #if defined(__PCD__) 
.................... //#define INT_LEAST24_MAX  (8388607) 
.................... //#define INT_LEAST24_MIN  (-8388608) 
.................... //#define UINT_LEAST24_MAX (16777215) 
....................  
.................... #define INT_LEAST64_MAX  (9223372036854775807) 
.................... #define INT_LEAST64_MIN  (-9223372036854775808) 
.................... #define UINT_LEAST64_MAX (18446744073709551615) 
.................... #endif 
....................  
.................... ///////// fastest width 
....................  
.................... #if defined(__PCD__) 
.................... typedef signed int16 int_fast8_t; 
.................... typedef unsigned int16 uint_fast8_t; 
.................... #define INT_FAST8_MAX  (32767) 
.................... #define INT_FAST8_MIN  (-32768) 
.................... #define UINT_FAST8_MAX (65535) 
.................... typedef signed int16 int_fast16_t; 
.................... typedef unsigned int16 uint_fast16_t; 
.................... //typedef signed int24 int_fast24_t; 
.................... //typedef unsigned int24 uint_fast24_t; 
.................... typedef signed int64 int_fast64_t; 
.................... typedef unsigned int64 uint_fast64_t; 
.................... #else 
.................... typedef signed int8 int_fast8_t; 
.................... typedef unsigned int8 uint_fast8_t; 
.................... #define INT_FAST8_MAX  (128) 
.................... #define INT_FAST8_MIN  (-127) 
.................... #define UINT_FAST8_MAX (255) 
.................... typedef signed int16 int_fast16_t; 
.................... typedef unsigned int16 uint_fast16_t; 
.................... #endif 
....................  
.................... typedef signed int32 int_fast32_t; 
.................... typedef unsigned int32 uint_fast32_t; 
....................  
.................... #define INT_FAST16_MAX  (32767) 
.................... #define INT_FAST16_MIN  (-32768) 
.................... #define UINT_FAST16_MAX (65535) 
....................  
.................... #define INT_FAST32_MAX  (2147483647) 
.................... #define INT_FAST32_MIN  (-2147483648) 
.................... #define UINT_FAST32_MAX (4294967295) 
....................  
.................... #if defined(__PCD__) 
.................... //#define INT_FAST24_MAX  (8388607) 
.................... //#define INT_FAST24_MIN  (-8388608) 
.................... //#define UINT_FAST24_MAX (16777215) 
....................  
.................... #define INT_FAST64_MAX  (9223372036854775807) 
.................... #define INT_FAST64_MIN  (-9223372036854775808) 
.................... #define UINT_FAST64_MAX (18446744073709551615) 
.................... #endif 
....................  
.................... //////////// big enough to hold pointers (OPTIONAL) 
....................  
.................... /// TODO 
....................  
.................... /// intptr_t uintptr_t 
....................  
.................... /// INTPTRN_MIN INTPTRN_MAX UINTPTRN_MAX 
....................  
....................  
.................... /////////// greatest width (OPTIONAL) 
....................  
.................... /// TODO 
....................  
.................... /// intmax_t uintmax_t 
....................  
.................... /// INTMAXN_MIN INTMAXN_MAX UINTMAXN_MAX 
....................  
.................... /// INTMAX_C(value) UINTMAX_C(value) 
....................  
....................  
.................... #endif 
....................  
....................  
.................... #define LED PIN_D1 
....................  
....................  
.................... int current_state = 1; 
.................... uint16_t count = 0; 
....................  
....................  
.................... #INT_RTCC 
.................... void  RTCC_isr(void)  
.................... { 
....................    set_timer0(251); 
002F:  MOVLW  FB
0030:  MOVWF  01
....................    count++; 
0031:  INCF   28,F
0032:  BTFSC  03.2
0033:  INCF   29,F
....................    if (count == 500) { 
0034:  MOVF   28,W
0035:  SUBLW  F4
0036:  BTFSS  03.2
0037:  GOTO   051
0038:  DECFSZ 29,W
0039:  GOTO   051
....................       if (current_state) 
003A:  MOVF   27,F
003B:  BTFSC  03.2
003C:  GOTO   043
....................          output_low(LED); 
003D:  MOVLW  FC
003E:  BSF    03.5
003F:  MOVWF  08
0040:  BCF    03.5
0041:  BCF    08.1
0042:  GOTO   048
....................       else 
....................          output_high(LED); 
0043:  MOVLW  FC
0044:  BSF    03.5
0045:  MOVWF  08
0046:  BCF    03.5
0047:  BSF    08.1
....................       current_state = !current_state; 
0048:  MOVF   27,F
0049:  BTFSC  03.2
004A:  GOTO   04D
004B:  MOVLW  00
004C:  GOTO   04E
004D:  MOVLW  01
004E:  MOVWF  27
....................       count = 0; 
004F:  CLRF   29
0050:  CLRF   28
....................    } 
0051:  BCF    0B.2
0052:  BCF    0A.3
0053:  BCF    0A.4
0054:  GOTO   01B
.................... } 
....................  
.................... void main() 
0055:  MOVF   03,W
0056:  ANDLW  1F
0057:  MOVWF  03
0058:  MOVLW  01
0059:  MOVWF  27
005A:  CLRF   29
005B:  CLRF   28
005C:  BSF    03.5
005D:  BSF    1F.0
005E:  BSF    1F.1
005F:  BSF    1F.2
0060:  BCF    1F.3
0061:  MOVLW  07
0062:  MOVWF  1C
0063:  BCF    03.7
.................... { 
....................    setup_timer_0(RTCC_INTERNAL|RTCC_DIV_1|RTCC_8_bit);     
0064:  MOVF   01,W
0065:  ANDLW  C7
0066:  IORLW  08
0067:  MOVWF  01
....................    output_low(LED); 
0068:  MOVLW  FC
0069:  MOVWF  08
006A:  BCF    03.5
006B:  BCF    08.1
....................    set_timer0(251); 
006C:  MOVLW  FB
006D:  MOVWF  01
....................    enable_interrupts(INT_RTCC); 
006E:  BSF    0B.5
....................    enable_interrupts(GLOBAL); 
006F:  MOVLW  C0
0070:  IORWF  0B,F
....................  
....................    while(TRUE) 
....................    { 
0071:  GOTO   071
....................       //TODO: User Code 
....................    } 
....................  
.................... } 
0072:  SLEEP

Configuration Fuses:
   Word  1: 3F32   HS NOWDT PUT NOBROWNOUT NOLVP NOCPD NOWRT NODEBUG NOPROTECT
