CCS PCM C Compiler, Version 5.008, 5967               13-jun-18 10:10

               Filename:   C:\Users\vbob\Desktop\Engenharia\7º Período\Microcontroladores\rs232\2_potenciometros\main.lst

               ROM used:   135 words (2%)
                           Largest free fragment is 2048
               RAM used:   6 (2%) at main() level
                           11 (3%) worst case
               Stack used: 1 locations
               Stack size: 8

*
0000:  MOVLW  00
0001:  MOVWF  0A
0002:  GOTO   033
0003:  NOP
.................... #include <16F877A.h> 
.................... //////// Standard Header file for the PIC16F877A device //////////////// 
.................... #device PIC16F877A 
....................  
.................... #list 
....................  
.................... #device ADC=10 
....................  
.................... #FUSES NOWDT                    //No Watch Dog Timer 
.................... #FUSES NOLVP                    //No low voltage prgming, B3(PIC16) or B5(PIC18) used for I/O 
....................  
.................... #use delay(crystal=16000000) 
0004:  MOVLW  26
0005:  MOVWF  04
0006:  BCF    03.7
0007:  MOVF   00,W
0008:  BTFSC  03.2
0009:  GOTO   018
000A:  MOVLW  05
000B:  MOVWF  78
000C:  CLRF   77
000D:  DECFSZ 77,F
000E:  GOTO   00D
000F:  DECFSZ 78,F
0010:  GOTO   00C
0011:  MOVLW  2E
0012:  MOVWF  77
0013:  DECFSZ 77,F
0014:  GOTO   013
0015:  GOTO   016
0016:  DECFSZ 00,F
0017:  GOTO   00A
0018:  RETURN
.................... #use rs232(baud=2400,parity=E,xmit=PIN_C6,rcv=PIN_C7,bits=8,stream=PORT1) 
0019:  MOVLW  08
001A:  MOVWF  78
001B:  CLRF   26
001C:  MOVF   25,W
001D:  MOVWF  77
001E:  MOVF   77,W
001F:  XORWF  26,F
0020:  RRF    77,F
0021:  DECFSZ 78,F
0022:  GOTO   01E
0023:  BTFSS  0C.4
0024:  GOTO   023
0025:  MOVLW  FE
0026:  BSF    03.5
0027:  ANDWF  18,F
0028:  BCF    03.5
0029:  BTFSS  26.0
002A:  GOTO   02E
002B:  BSF    03.5
002C:  BSF    18.0
002D:  BCF    03.5
002E:  MOVF   25,W
002F:  MOVWF  19
0030:  BCF    0A.3
0031:  BCF    0A.4
0032:  GOTO   07E (RETURN)
....................  
....................  
.................... void main() 
0033:  MOVF   03,W
0034:  ANDLW  1F
0035:  MOVWF  03
0036:  MOVLW  67
0037:  BSF    03.5
0038:  MOVWF  19
0039:  MOVLW  E2
003A:  MOVWF  18
003B:  MOVLW  D0
003C:  BCF    03.5
003D:  MOVWF  18
003E:  BSF    03.5
003F:  BSF    1F.0
0040:  BSF    1F.1
0041:  BSF    1F.2
0042:  BCF    1F.3
0043:  MOVLW  07
0044:  MOVWF  1C
0045:  BCF    03.7
.................... { 
....................    setup_adc_ports(AN0_AN1_AN3); 
0046:  BCF    1F.0
0047:  BCF    1F.1
0048:  BSF    1F.2
0049:  BCF    1F.3
....................    setup_adc(ADC_CLOCK_DIV_32); 
004A:  BCF    1F.6
004B:  BCF    03.5
004C:  BCF    1F.6
004D:  BSF    1F.7
004E:  BSF    03.5
004F:  BSF    1F.7
0050:  BCF    03.5
0051:  BSF    1F.0
....................     
....................    long value; 
....................    int bit1 = 0; 
....................    int bit2 = 0; 
0052:  CLRF   23
0053:  CLRF   24
....................     
....................    while(TRUE) 
....................    { 
....................       set_adc_channel(0); 
0054:  MOVLW  00
0055:  MOVWF  78
0056:  MOVF   1F,W
0057:  ANDLW  C7
0058:  IORWF  78,W
0059:  MOVWF  1F
....................       delay_ms(1); 
005A:  MOVLW  01
005B:  MOVWF  26
005C:  CALL   004
....................       value=read_adc(); 
005D:  BSF    1F.2
005E:  BTFSC  1F.2
005F:  GOTO   05E
0060:  BSF    03.5
0061:  MOVF   1E,W
0062:  BCF    03.5
0063:  MOVWF  21
0064:  MOVF   1E,W
0065:  MOVWF  22
....................       bit1 = value&11110000; 
0066:  MOVF   21,W
0067:  ANDLW  70
0068:  MOVWF  23
....................       bit2 = value<<6; 
0069:  RLF    21,W
006A:  MOVWF  79
006B:  RLF    22,W
006C:  MOVWF  7A
006D:  RLF    79,F
006E:  RLF    7A,F
006F:  RLF    79,F
0070:  RLF    7A,F
0071:  RLF    79,F
0072:  RLF    7A,F
0073:  RLF    79,F
0074:  RLF    7A,F
0075:  RLF    79,F
0076:  RLF    7A,F
0077:  MOVLW  C0
0078:  ANDWF  79,F
0079:  MOVF   79,W
007A:  MOVWF  24
....................       putc(value); 
007B:  MOVF   21,W
007C:  MOVWF  25
007D:  GOTO   019
....................       delay_ms(1000); 
007E:  MOVLW  04
007F:  MOVWF  25
0080:  MOVLW  FA
0081:  MOVWF  26
0082:  CALL   004
0083:  DECFSZ 25,F
0084:  GOTO   080
0085:  GOTO   054
....................    } 
.................... } 
0086:  SLEEP

Configuration Fuses:
   Word  1: 3F72   HS NOWDT PUT BROWNOUT NOLVP NOCPD NOWRT NODEBUG NOPROTECT
